; Function Attrs: nounwind uwtable
define noundef zeroext i1 @lv_roller_set_selected_str(ptr noundef %0, ptr noundef %1, i1 noundef zeroext %2) local_unnamed_addr #0 {
  %.not.i = icmp eq ptr %0, null
  br i1 %.not.i, label %.preheader.i, label %lv_roller_get_options.exit

.preheader.i:                                     ; preds = %3, %.preheader.i
  br label %.preheader.i

lv_roller_get_options.exit:                       ; preds = %3
  %4 = tail call ptr @lv_obj_get_child(ptr noundef nonnull %0, i32 noundef 0) #6
  %5 = tail call ptr @lv_label_get_text(ptr noundef %4) #6
  %6 = tail call i64 @lv_strlen(ptr noundef %5) #6
  %.not = icmp eq i64 %6, 0
  br i1 %.not, label %.loopexit, label %.lr.ph

.lr.ph:                                           ; preds = %lv_roller_get_options.exit, %53
  %.027 = phi i64 [ %.pre-phi, %53 ], [ 0, %lv_roller_get_options.exit ]
  %.01726 = phi i64 [ %.1, %53 ], [ 0, %lv_roller_get_options.exit ]
  %.01825 = phi i32 [ %.119, %53 ], [ 0, %lv_roller_get_options.exit ]
  %7 = getelementptr inbounds nuw i8, ptr %5, i64 %.027
  %8 = load i8, ptr %7, align 1, !tbaa !18
  %9 = icmp eq i8 %8, 10
  br i1 %9, label %10, label %.lr.ph._crit_edge

.lr.ph._crit_edge:                                ; preds = %.lr.ph
  %.pre = add nuw i64 %.027, 1
  br label %53

10:                                               ; preds = %.lr.ph
  %11 = getelementptr inbounds nuw i8, ptr %5, i64 %.01726
  %12 = sub i64 %.027, %.01726
  %13 = tail call i32 @lv_strncmp(ptr noundef %11, ptr noundef %1, i64 noundef %12) #6
  %14 = icmp eq i32 %13, 0
  br i1 %14, label %15, label %50

15:                                               ; preds = %10
  %16 = getelementptr inbounds nuw i8, ptr %0, i64 80
  %17 = load i8, ptr %16, align 8
  %18 = and i8 %17, 3
  %19 = icmp eq i8 %18, 1
  %20 = getelementptr inbounds nuw i8, ptr %0, i64 64
  %21 = load i32, ptr %20, align 8, !tbaa !3
  br i1 %19, label %22, label %lv_roller_set_selected.exit

22:                                               ; preds = %15
  %23 = getelementptr inbounds nuw i8, ptr %0, i64 76
  %24 = load i32, ptr %23, align 4, !tbaa !42
  %25 = udiv i32 %21, %24
  %26 = icmp ult i32 %.01825, %25
  br i1 %26, label %27, label %lv_roller_set_selected.exit

27:                                               ; preds = %22
  %28 = getelementptr inbounds nuw i8, ptr %0, i64 68
  %29 = load i32, ptr %28, align 4, !tbaa !16
  %.fr.i = freeze i32 %29
  %30 = urem i32 %.fr.i, %25
  %31 = sub nuw i32 %.fr.i, %30
  %32 = sub i32 %30, %.01825
  %sext.i = shl i32 %32, 16
  %33 = ashr exact i32 %sext.i, 16
  %34 = tail call i32 @llvm.abs.i32(i32 %33, i1 true)
  %35 = lshr i32 %25, 1
  %36 = icmp samesign ugt i32 %34, %35
  br i1 %36, label %37, label %43

37:                                               ; preds = %27
  %38 = icmp ugt i32 %30, %.01825
  br i1 %38, label %39, label %41

39:                                               ; preds = %37
  %40 = add i32 %25, %.01825
  br label %43

41:                                               ; preds = %37
  %42 = sub i32 %.01825, %25
  br label %43

43:                                               ; preds = %41, %39, %27
  %.0.i = phi i32 [ %40, %39 ], [ %42, %41 ], [ %.01825, %27 ]
  %44 = add i32 %31, %.0.i
  br label %lv_roller_set_selected.exit

lv_roller_set_selected.exit:                      ; preds = %15, %22, %43
  %.037.i = phi i32 [ %44, %43 ], [ %.01825, %22 ], [ %.01825, %15 ]
  %45 = icmp ult i32 %.037.i, %21
  %46 = add i32 %21, -1
  %47 = select i1 %45, i32 %.037.i, i32 %46
  %48 = getelementptr inbounds nuw i8, ptr %0, i64 68
  store i32 %47, ptr %48, align 4, !tbaa !16
  %49 = getelementptr inbounds nuw i8, ptr %0, i64 72
  store i32 %47, ptr %49, align 8, !tbaa !17
  tail call fastcc void @refr_position(ptr noundef nonnull %0, i1 noundef zeroext %2)
  br label %.loopexit

50:                                               ; preds = %10
  %51 = add i32 %.01825, 1
  %52 = add nuw i64 %.027, 1
  br label %53

53:                                               ; preds = %.lr.ph._crit_edge, %50
  %.pre-phi = phi i64 [ %.pre, %.lr.ph._crit_edge ], [ %52, %50 ]
  %.119 = phi i32 [ %.01825, %.lr.ph._crit_edge ], [ %51, %50 ]
  %.1 = phi i64 [ %.01726, %.lr.ph._crit_edge ], [ %52, %50 ]
  %exitcond.not = icmp eq i64 %.pre-phi, %6
  br i1 %exitcond.not, label %.loopexit, label %.lr.ph, !llvm.loop !60

.loopexit:                                        ; preds = %53, %lv_roller_get_options.exit, %lv_roller_set_selected.exit
  %54 = phi i1 [ true, %lv_roller_set_selected.exit ], [ false, %lv_roller_get_options.exit ], [ false, %53 ]
  ret i1 %54
}